; Function Attrs: nounwind sspstrong uwtable
define dso_local noundef i64 @rb_str_locktmp(i64 noundef returned %0) local_unnamed_addr #1 {
  %2 = icmp eq i64 %0, 0
  %3 = and i64 %0, 7
  %4 = icmp ne i64 %3, 0
  %5 = or i1 %2, %4
  br i1 %5, label %RB_FL_SET.exit, label %RB_FL_ABLE.exit.i

RB_FL_ABLE.exit.i:                                ; preds = %1
  %6 = inttoptr i64 %0 to ptr
  %7 = load i64, ptr %6, align 8, !tbaa !7
  %8 = and i64 %7, 31
  %.not.i = icmp eq i64 %8, 27
  %9 = and i64 %7, 524288
  %.not = icmp eq i64 %9, 0
  %or.cond = or i1 %.not.i, %.not
  br i1 %or.cond, label %RB_FL_ABLE.exit.i3, label %10

10:                                               ; preds = %RB_FL_ABLE.exit.i
  %11 = load i64, ptr @rb_eRuntimeError, align 8, !tbaa !26
  tail call void (i64, ptr, ...) @rb_raise(i64 noundef %11, ptr noundef nonnull @.str.14) #32
  unreachable

RB_FL_ABLE.exit.i3:                               ; preds = %RB_FL_ABLE.exit.i
  br i1 %.not.i, label %RB_FL_SET.exit, label %12

12:                                               ; preds = %RB_FL_ABLE.exit.i3
  %13 = or i64 %7, 524288
  store i64 %13, ptr %6, align 8, !tbaa !7
  br label %RB_FL_SET.exit

RB_FL_SET.exit:                                   ; preds = %1, %RB_FL_ABLE.exit.i3, %12
  ret i64 %0
}